target datalayout = "e-m:e-p270:32:32-p271:32:32-p272:64:64-i64:64-i128:128-f80:128-n8:16:32:64-S128"
target triple = "x86_64-pc-linux-gnu"

%struct._xml_frame_t = type { i32, ptr, ptr, ptr, ptr, ptr, ptr, ptr, ptr, ptr, ptr, ptr, ptr, i32, i32, ptr, ptr }
%struct._xml_ns_t = type { ptr, ptr, i32, i32, i32, ptr, ptr, ptr }
%struct._GPtrArray = type { ptr, i32 }
%struct._tvbparse_elem_t = type { i32, ptr, ptr, i32, i32, ptr, ptr, ptr, ptr, ptr }

@hf_unknowwn_attrib = internal global i32 0, align 4
@.str.259 = private unnamed_addr constant [3 x i8] c"%s\00", align 1

; Function Attrs: nounwind null_pointer_is_valid sspstrong uwtable
define internal void @insert_xml_frame(ptr noundef %0, ptr noundef %1) #0 {
  %3 = alloca ptr, align 8
  %4 = alloca ptr, align 8
  store ptr %0, ptr %3, align 8
  store ptr %1, ptr %4, align 8
  %5 = load ptr, ptr %4, align 8
  %6 = getelementptr inbounds nuw %struct._xml_frame_t, ptr %5, i32 0, i32 2
  store ptr null, ptr %6, align 8
  %7 = load ptr, ptr %4, align 8
  %8 = getelementptr inbounds nuw %struct._xml_frame_t, ptr %7, i32 0, i32 3
  store ptr null, ptr %8, align 8
  %9 = load ptr, ptr %3, align 8
  %10 = load ptr, ptr %4, align 8
  %11 = getelementptr inbounds nuw %struct._xml_frame_t, ptr %10, i32 0, i32 1
  store ptr %9, ptr %11, align 8
  %12 = load ptr, ptr %4, align 8
  %13 = getelementptr inbounds nuw %struct._xml_frame_t, ptr %12, i32 0, i32 5
  store ptr null, ptr %13, align 8
  %14 = load ptr, ptr %4, align 8
  %15 = getelementptr inbounds nuw %struct._xml_frame_t, ptr %14, i32 0, i32 4
  store ptr null, ptr %15, align 8
  %16 = load ptr, ptr %3, align 8
  %17 = icmp eq ptr %16, null
  br i1 %17, label %18, label %19

18:                                               ; preds = %2
  br label %43

19:                                               ; preds = %2
  %20 = load ptr, ptr %3, align 8
  %21 = getelementptr inbounds nuw %struct._xml_frame_t, ptr %20, i32 0, i32 2
  %22 = load ptr, ptr %21, align 8
  %23 = icmp eq ptr %22, null
  br i1 %23, label %24, label %28

24:                                               ; preds = %19
  %25 = load ptr, ptr %4, align 8
  %26 = load ptr, ptr %3, align 8
  %27 = getelementptr inbounds nuw %struct._xml_frame_t, ptr %26, i32 0, i32 2
  store ptr %25, ptr %27, align 8
  br label %39

28:                                               ; preds = %19
  %29 = load ptr, ptr %4, align 8
  %30 = load ptr, ptr %3, align 8
  %31 = getelementptr inbounds nuw %struct._xml_frame_t, ptr %30, i32 0, i32 3
  %32 = load ptr, ptr %31, align 8
  %33 = getelementptr inbounds nuw %struct._xml_frame_t, ptr %32, i32 0, i32 5
  store ptr %29, ptr %33, align 8
  %34 = load ptr, ptr %3, align 8
  %35 = getelementptr inbounds nuw %struct._xml_frame_t, ptr %34, i32 0, i32 3
  %36 = load ptr, ptr %35, align 8
  %37 = load ptr, ptr %4, align 8
  %38 = getelementptr inbounds nuw %struct._xml_frame_t, ptr %37, i32 0, i32 4
  store ptr %36, ptr %38, align 8
  br label %39

39:                                               ; preds = %28, %24
  %40 = load ptr, ptr %4, align 8
  %41 = load ptr, ptr %3, align 8
  %42 = getelementptr inbounds nuw %struct._xml_frame_t, ptr %41, i32 0, i32 3
  store ptr %40, ptr %42, align 8
  br label %43

43:                                               ; preds = %39, %18
  ret void
}

; Function Attrs: null_pointer_is_valid sspstrong uwtable
define internal void @after_attrib(ptr noundef %0, ptr noundef %1, ptr noundef %2) #3 {
  %4 = alloca ptr, align 8
  %5 = alloca ptr, align 8
  %6 = alloca ptr, align 8
  %7 = alloca ptr, align 8
  %8 = alloca ptr, align 8
  %9 = alloca ptr, align 8
  %10 = alloca ptr, align 8
  %11 = alloca ptr, align 8
  %12 = alloca ptr, align 8
  %13 = alloca ptr, align 8
  %14 = alloca i32, align 4
  %15 = alloca ptr, align 8
  %16 = alloca ptr, align 8
  store ptr %0, ptr %4, align 8
  store ptr %1, ptr %5, align 8
  store ptr %2, ptr %6, align 8
  call void @llvm.lifetime.start.p0(i64 8, ptr %7) #10
  %17 = load ptr, ptr %4, align 8
  store ptr %17, ptr %7, align 8
  call void @llvm.lifetime.start.p0(i64 8, ptr %8) #10
  %18 = load ptr, ptr %7, align 8
  %19 = getelementptr inbounds nuw %struct._GPtrArray, ptr %18, i32 0, i32 0
  %20 = load ptr, ptr %19, align 8
  %21 = load ptr, ptr %7, align 8
  %22 = getelementptr inbounds nuw %struct._GPtrArray, ptr %21, i32 0, i32 1
  %23 = load i32, ptr %22, align 8
  %24 = sub i32 %23, 1
  %25 = zext i32 %24 to i64
  %26 = getelementptr ptr, ptr %20, i64 %25
  %27 = load ptr, ptr %26, align 8
  store ptr %27, ptr %8, align 8
  call void @llvm.lifetime.start.p0(i64 8, ptr %9) #10
  call void @llvm.lifetime.start.p0(i64 8, ptr %10) #10
  call void @llvm.lifetime.start.p0(i64 8, ptr %11) #10
  call void @llvm.lifetime.start.p0(i64 8, ptr %12) #10
  %28 = load ptr, ptr %6, align 8
  %29 = getelementptr inbounds nuw %struct._tvbparse_elem_t, ptr %28, i32 0, i32 6
  %30 = load ptr, ptr %29, align 8
  %31 = getelementptr inbounds nuw %struct._tvbparse_elem_t, ptr %30, i32 0, i32 7
  %32 = load ptr, ptr %31, align 8
  %33 = getelementptr inbounds nuw %struct._tvbparse_elem_t, ptr %32, i32 0, i32 7
  %34 = load ptr, ptr %33, align 8
  %35 = getelementptr inbounds nuw %struct._tvbparse_elem_t, ptr %34, i32 0, i32 5
  %36 = load ptr, ptr %35, align 8
  store ptr %36, ptr %12, align 8
  call void @llvm.lifetime.start.p0(i64 8, ptr %13) #10
  call void @llvm.lifetime.start.p0(i64 4, ptr %14) #10
  call void @llvm.lifetime.start.p0(i64 8, ptr %15) #10
  call void @llvm.lifetime.start.p0(i64 8, ptr %16) #10
  %37 = call ptr @wmem_packet_scope()
  %38 = load ptr, ptr %6, align 8
  %39 = getelementptr inbounds nuw %struct._tvbparse_elem_t, ptr %38, i32 0, i32 6
  %40 = load ptr, ptr %39, align 8
  %41 = getelementptr inbounds nuw %struct._tvbparse_elem_t, ptr %40, i32 0, i32 2
  %42 = load ptr, ptr %41, align 8
  %43 = load ptr, ptr %6, align 8
  %44 = getelementptr inbounds nuw %struct._tvbparse_elem_t, ptr %43, i32 0, i32 6
  %45 = load ptr, ptr %44, align 8
  %46 = getelementptr inbounds nuw %struct._tvbparse_elem_t, ptr %45, i32 0, i32 3
  %47 = load i32, ptr %46, align 8
  %48 = load ptr, ptr %6, align 8
  %49 = getelementptr inbounds nuw %struct._tvbparse_elem_t, ptr %48, i32 0, i32 6
  %50 = load ptr, ptr %49, align 8
  %51 = getelementptr inbounds nuw %struct._tvbparse_elem_t, ptr %50, i32 0, i32 4
  %52 = load i32, ptr %51, align 4
  %53 = call ptr @tvb_get_string_enc(ptr noundef %37, ptr noundef %42, i32 noundef %47, i32 noundef %52, i32 noundef 0)
  store ptr %53, ptr %9, align 8
  %54 = call ptr @wmem_packet_scope()
  %55 = load ptr, ptr %9, align 8
  %56 = call noalias ptr @wmem_strdup(ptr noundef %54, ptr noundef %55)
  store ptr %56, ptr %10, align 8
  %57 = load ptr, ptr %9, align 8
  %58 = call ptr @ascii_strdown_inplace(ptr noundef %57)
  %59 = load ptr, ptr %8, align 8
  %60 = getelementptr inbounds nuw %struct._xml_frame_t, ptr %59, i32 0, i32 12
  %61 = load ptr, ptr %60, align 8
  %62 = icmp ne ptr %61, null
  br i1 %62, label %63, label %76

63:                                               ; preds = %3
  %64 = load ptr, ptr %8, align 8
  %65 = getelementptr inbounds nuw %struct._xml_frame_t, ptr %64, i32 0, i32 12
  %66 = load ptr, ptr %65, align 8
  %67 = getelementptr inbounds nuw %struct._xml_ns_t, ptr %66, i32 0, i32 5
  %68 = load ptr, ptr %67, align 8
  %69 = load ptr, ptr %9, align 8
  %70 = call ptr @wmem_map_lookup(ptr noundef %68, ptr noundef %69)
  store ptr %70, ptr %13, align 8
  %71 = icmp ne ptr %70, null
  br i1 %71, label %72, label %76

72:                                               ; preds = %63
  %73 = load ptr, ptr %13, align 8
  %74 = load i32, ptr %73, align 4
  store i32 %74, ptr %14, align 4
  %75 = load ptr, ptr %12, align 8
  store ptr %75, ptr %11, align 8
  br label %79

76:                                               ; preds = %63, %3
  %77 = load i32, ptr @hf_unknowwn_attrib, align 4
  store i32 %77, ptr %14, align 4
  %78 = load ptr, ptr %6, align 8
  store ptr %78, ptr %11, align 8
  br label %79

79:                                               ; preds = %76, %72
  %80 = load ptr, ptr %8, align 8
  %81 = getelementptr inbounds nuw %struct._xml_frame_t, ptr %80, i32 0, i32 9
  %82 = load ptr, ptr %81, align 8
  %83 = load i32, ptr %14, align 4
  %84 = load ptr, ptr %11, align 8
  %85 = getelementptr inbounds nuw %struct._tvbparse_elem_t, ptr %84, i32 0, i32 2
  %86 = load ptr, ptr %85, align 8
  %87 = load ptr, ptr %11, align 8
  %88 = getelementptr inbounds nuw %struct._tvbparse_elem_t, ptr %87, i32 0, i32 3
  %89 = load i32, ptr %88, align 8
  %90 = load ptr, ptr %11, align 8
  %91 = getelementptr inbounds nuw %struct._tvbparse_elem_t, ptr %90, i32 0, i32 4
  %92 = load i32, ptr %91, align 4
  %93 = call ptr @proto_tree_add_item(ptr noundef %82, i32 noundef %83, ptr noundef %86, i32 noundef %89, i32 noundef %92, i32 noundef 2)
  store ptr %93, ptr %15, align 8
  %94 = load ptr, ptr %15, align 8
  %95 = call ptr @wmem_packet_scope()
  %96 = load ptr, ptr %6, align 8
  %97 = getelementptr inbounds nuw %struct._tvbparse_elem_t, ptr %96, i32 0, i32 2
  %98 = load ptr, ptr %97, align 8
  %99 = load ptr, ptr %6, align 8
  %100 = getelementptr inbounds nuw %struct._tvbparse_elem_t, ptr %99, i32 0, i32 3
  %101 = load i32, ptr %100, align 8
  %102 = load ptr, ptr %6, align 8
  %103 = getelementptr inbounds nuw %struct._tvbparse_elem_t, ptr %102, i32 0, i32 4
  %104 = load i32, ptr %103, align 4
  %105 = call ptr @tvb_format_text(ptr noundef %95, ptr noundef %98, i32 noundef %101, i32 noundef %104)
  call void (ptr, ptr, ...) @proto_item_set_text(ptr noundef %94, ptr noundef @.str.259, ptr noundef %105)
  %106 = load ptr, ptr %15, align 8
  %107 = load ptr, ptr %8, align 8
  %108 = getelementptr inbounds nuw %struct._xml_frame_t, ptr %107, i32 0, i32 11
  store ptr %106, ptr %108, align 8
  %109 = call ptr @wmem_packet_scope()
  %110 = call noalias ptr @wmem_alloc(ptr noundef %109, i64 noundef 128) #12
  store ptr %110, ptr %16, align 8
  %111 = load ptr, ptr %16, align 8
  %112 = getelementptr inbounds nuw %struct._xml_frame_t, ptr %111, i32 0, i32 0
  store i32 4, ptr %112, align 8
  %113 = load ptr, ptr %9, align 8
  %114 = load ptr, ptr %16, align 8
  %115 = getelementptr inbounds nuw %struct._xml_frame_t, ptr %114, i32 0, i32 6
  store ptr %113, ptr %115, align 8
  %116 = load ptr, ptr %10, align 8
  %117 = load ptr, ptr %16, align 8
  %118 = getelementptr inbounds nuw %struct._xml_frame_t, ptr %117, i32 0, i32 7
  store ptr %116, ptr %118, align 8
  %119 = load ptr, ptr %12, align 8
  %120 = getelementptr inbounds nuw %struct._tvbparse_elem_t, ptr %119, i32 0, i32 2
  %121 = load ptr, ptr %120, align 8
  %122 = load ptr, ptr %12, align 8
  %123 = getelementptr inbounds nuw %struct._tvbparse_elem_t, ptr %122, i32 0, i32 3
  %124 = load i32, ptr %123, align 8
  %125 = load ptr, ptr %12, align 8
  %126 = getelementptr inbounds nuw %struct._tvbparse_elem_t, ptr %125, i32 0, i32 4
  %127 = load i32, ptr %126, align 4
  %128 = call ptr @tvb_new_subset_length(ptr noundef %121, i32 noundef %124, i32 noundef %127)
  %129 = load ptr, ptr %16, align 8
  %130 = getelementptr inbounds nuw %struct._xml_frame_t, ptr %129, i32 0, i32 8
  store ptr %128, ptr %130, align 8
  %131 = load ptr, ptr %8, align 8
  %132 = load ptr, ptr %16, align 8
  call void @insert_xml_frame(ptr noundef %131, ptr noundef %132)
  %133 = load ptr, ptr %15, align 8
  %134 = load ptr, ptr %16, align 8
  %135 = getelementptr inbounds nuw %struct._xml_frame_t, ptr %134, i32 0, i32 10
  store ptr %133, ptr %135, align 8
  %136 = load ptr, ptr %15, align 8
  %137 = load ptr, ptr %16, align 8
  %138 = getelementptr inbounds nuw %struct._xml_frame_t, ptr %137, i32 0, i32 11
  store ptr %136, ptr %138, align 8
  %139 = load ptr, ptr %16, align 8
  %140 = getelementptr inbounds nuw %struct._xml_frame_t, ptr %139, i32 0, i32 9
  store ptr null, ptr %140, align 8
  %141 = load ptr, ptr %6, align 8
  %142 = getelementptr inbounds nuw %struct._tvbparse_elem_t, ptr %141, i32 0, i32 3
  %143 = load i32, ptr %142, align 8
  %144 = load ptr, ptr %16, align 8
  %145 = getelementptr inbounds nuw %struct._xml_frame_t, ptr %144, i32 0, i32 13
  store i32 %143, ptr %145, align 8
  %146 = load ptr, ptr %6, align 8
  %147 = getelementptr inbounds nuw %struct._tvbparse_elem_t, ptr %146, i32 0, i32 4
  %148 = load i32, ptr %147, align 4
  %149 = load ptr, ptr %16, align 8
  %150 = getelementptr inbounds nuw %struct._xml_frame_t, ptr %149, i32 0, i32 14
  store i32 %148, ptr %150, align 4
  %151 = load ptr, ptr %16, align 8
  %152 = getelementptr inbounds nuw %struct._xml_frame_t, ptr %151, i32 0, i32 12
  store ptr null, ptr %152, align 8
  %153 = load ptr, ptr %8, align 8
  %154 = getelementptr inbounds nuw %struct._xml_frame_t, ptr %153, i32 0, i32 15
  %155 = load ptr, ptr %154, align 8
  %156 = load ptr, ptr %16, align 8
  %157 = getelementptr inbounds nuw %struct._xml_frame_t, ptr %156, i32 0, i32 15
  store ptr %155, ptr %157, align 8
  call void @llvm.lifetime.end.p0(i64 8, ptr %16) #10
  call void @llvm.lifetime.end.p0(i64 8, ptr %15) #10
  call void @llvm.lifetime.end.p0(i64 4, ptr %14) #10
  call void @llvm.lifetime.end.p0(i64 8, ptr %13) #10
  call void @llvm.lifetime.end.p0(i64 8, ptr %12) #10
  call void @llvm.lifetime.end.p0(i64 8, ptr %11) #10
  call void @llvm.lifetime.end.p0(i64 8, ptr %10) #10
  call void @llvm.lifetime.end.p0(i64 8, ptr %9) #10
  call void @llvm.lifetime.end.p0(i64 8, ptr %8) #10
  call void @llvm.lifetime.end.p0(i64 8, ptr %7) #10
  ret void
}