; Function Attrs: null_pointer_is_valid sspstrong uwtable
define internal void @after_attrib(ptr noundef readonly captures(none) %0, ptr readnone captures(none) %1, ptr noundef readonly captures(none) %2) #4 {
  %4 = load ptr, ptr %0, align 8
  %5 = getelementptr inbounds nuw i8, ptr %0, i64 8
  %6 = load i32, ptr %5, align 8
  %7 = add i32 %6, -1
  %8 = zext i32 %7 to i64
  %9 = getelementptr ptr, ptr %4, i64 %8
  %10 = load ptr, ptr %9, align 8
  %11 = getelementptr inbounds nuw i8, ptr %2, i64 40
  %12 = load ptr, ptr %11, align 8
  %13 = getelementptr inbounds nuw i8, ptr %12, i64 48
  %14 = load ptr, ptr %13, align 8
  %15 = getelementptr inbounds nuw i8, ptr %14, i64 48
  %16 = load ptr, ptr %15, align 8
  %17 = getelementptr inbounds nuw i8, ptr %16, i64 32
  %18 = load ptr, ptr %17, align 8
  %19 = tail call ptr @wmem_packet_scope()
  %20 = load ptr, ptr %11, align 8
  %21 = getelementptr inbounds nuw i8, ptr %20, i64 16
  %22 = load ptr, ptr %21, align 8
  %23 = getelementptr inbounds nuw i8, ptr %20, i64 24
  %24 = load i32, ptr %23, align 8
  %25 = getelementptr inbounds nuw i8, ptr %20, i64 28
  %26 = load i32, ptr %25, align 4
  %27 = tail call ptr @tvb_get_string_enc(ptr noundef %19, ptr noundef %22, i32 noundef %24, i32 noundef %26, i32 noundef 0)
  %28 = tail call ptr @wmem_packet_scope()
  %29 = tail call noalias ptr @wmem_strdup(ptr noundef %28, ptr noundef %27)
  %30 = tail call ptr @ascii_strdown_inplace(ptr noundef %27)
  %31 = getelementptr inbounds nuw i8, ptr %10, i64 96
  %32 = load ptr, ptr %31, align 8
  %.not = icmp eq ptr %32, null
  br i1 %.not, label %37, label %33

33:                                               ; preds = %3
  %34 = getelementptr inbounds nuw i8, ptr %32, i64 32
  %35 = load ptr, ptr %34, align 8
  %36 = tail call ptr @wmem_map_lookup(ptr noundef %35, ptr noundef %27)
  %.not51 = icmp eq ptr %36, null
  br i1 %.not51, label %37, label %38

37:                                               ; preds = %33, %3
  br label %38

38:                                               ; preds = %33, %37
  %.048.in = phi ptr [ @hf_unknowwn_attrib, %37 ], [ %36, %33 ]
  %.0 = phi ptr [ %2, %37 ], [ %18, %33 ]
  %.048 = load i32, ptr %.048.in, align 4
  %39 = getelementptr inbounds nuw i8, ptr %10, i64 72
  %40 = load ptr, ptr %39, align 8
  %41 = getelementptr inbounds nuw i8, ptr %.0, i64 16
  %42 = load ptr, ptr %41, align 8
  %43 = getelementptr inbounds nuw i8, ptr %.0, i64 24
  %44 = load i32, ptr %43, align 8
  %45 = getelementptr inbounds nuw i8, ptr %.0, i64 28
  %46 = load i32, ptr %45, align 4
  %47 = tail call ptr @proto_tree_add_item(ptr noundef %40, i32 noundef %.048, ptr noundef %42, i32 noundef %44, i32 noundef %46, i32 noundef 2)
  %48 = tail call ptr @wmem_packet_scope()
  %49 = getelementptr inbounds nuw i8, ptr %2, i64 16
  %50 = load ptr, ptr %49, align 8
  %51 = getelementptr inbounds nuw i8, ptr %2, i64 24
  %52 = load i32, ptr %51, align 8
  %53 = getelementptr inbounds nuw i8, ptr %2, i64 28
  %54 = load i32, ptr %53, align 4
  %55 = tail call ptr @tvb_format_text(ptr noundef %48, ptr noundef %50, i32 noundef %52, i32 noundef %54)
  tail call void (ptr, ptr, ...) @proto_item_set_text(ptr noundef %47, ptr noundef nonnull @.str.259, ptr noundef %55)
  %56 = getelementptr inbounds nuw i8, ptr %10, i64 88
  store ptr %47, ptr %56, align 8
  %57 = tail call ptr @wmem_packet_scope()
  %58 = tail call noalias dereferenceable_or_null(128) ptr @wmem_alloc(ptr noundef %57, i64 noundef 128) #13
  store i32 4, ptr %58, align 8
  %59 = getelementptr inbounds nuw i8, ptr %58, i64 48
  store ptr %27, ptr %59, align 8
  %60 = getelementptr inbounds nuw i8, ptr %58, i64 56
  store ptr %29, ptr %60, align 8
  %61 = getelementptr inbounds nuw i8, ptr %18, i64 16
  %62 = load ptr, ptr %61, align 8
  %63 = getelementptr inbounds nuw i8, ptr %18, i64 24
  %64 = load i32, ptr %63, align 8
  %65 = getelementptr inbounds nuw i8, ptr %18, i64 28
  %66 = load i32, ptr %65, align 4
  %67 = tail call ptr @tvb_new_subset_length(ptr noundef %62, i32 noundef %64, i32 noundef %66)
  %68 = getelementptr inbounds nuw i8, ptr %58, i64 64
  store ptr %67, ptr %68, align 8
  %69 = getelementptr inbounds nuw i8, ptr %58, i64 16
  %70 = getelementptr inbounds nuw i8, ptr %58, i64 8
  tail call void @llvm.memset.p0.i64(ptr noundef nonnull align 8 dereferenceable(16) %69, i8 0, i64 16, i1 false)
  store ptr %10, ptr %70, align 8
  %71 = getelementptr inbounds nuw i8, ptr %58, i64 32
  %72 = icmp eq ptr %10, null
  tail call void @llvm.memset.p0.i64(ptr noundef nonnull align 8 dereferenceable(16) %71, i8 0, i64 16, i1 false)
  br i1 %72, label %insert_xml_frame.exit, label %73

73:                                               ; preds = %38
  %74 = getelementptr inbounds nuw i8, ptr %10, i64 16
  %75 = load ptr, ptr %74, align 8
  %76 = icmp eq ptr %75, null
  br i1 %76, label %77, label %78

77:                                               ; preds = %73
  store ptr %58, ptr %74, align 8
  br label %83

78:                                               ; preds = %73
  %79 = getelementptr inbounds nuw i8, ptr %10, i64 24
  %80 = load ptr, ptr %79, align 8
  %81 = getelementptr inbounds nuw i8, ptr %80, i64 40
  store ptr %58, ptr %81, align 8
  %82 = load ptr, ptr %79, align 8
  store ptr %82, ptr %71, align 8
  br label %83

83:                                               ; preds = %78, %77
  %84 = getelementptr inbounds nuw i8, ptr %10, i64 24
  store ptr %58, ptr %84, align 8
  br label %insert_xml_frame.exit

insert_xml_frame.exit:                            ; preds = %38, %83
  %85 = getelementptr inbounds nuw i8, ptr %58, i64 80
  store ptr %47, ptr %85, align 8
  %86 = getelementptr inbounds nuw i8, ptr %58, i64 88
  store ptr %47, ptr %86, align 8
  %87 = getelementptr inbounds nuw i8, ptr %58, i64 72
  store ptr null, ptr %87, align 8
  %88 = load i32, ptr %51, align 8
  %89 = getelementptr inbounds nuw i8, ptr %58, i64 104
  store i32 %88, ptr %89, align 8
  %90 = load i32, ptr %53, align 4
  %91 = getelementptr inbounds nuw i8, ptr %58, i64 108
  store i32 %90, ptr %91, align 4
  %92 = getelementptr inbounds nuw i8, ptr %58, i64 96
  store ptr null, ptr %92, align 8
  %93 = getelementptr inbounds nuw i8, ptr %10, i64 112
  %94 = load ptr, ptr %93, align 8
  %95 = getelementptr inbounds nuw i8, ptr %58, i64 112
  store ptr %94, ptr %95, align 8
  ret void
}